target datalayout = "e-m:e-p270:32:32-p271:32:32-p272:64:64-i64:64-i128:128-f80:128-n8:16:32:64-S128"
target triple = "x86_64-pc-linux-gnu"

%"class.llvm::StringRef" = type { ptr, i64 }
%"class.llvm::SmallVectorBase" = type { ptr, i32, i32 }
%struct.tm = type { i32, i32, i32, i32, i32, i32, i32, i32, i32, i64, ptr }
%"class.(anonymous namespace)::MasmParser" = type { %"class.llvm::MCAsmParser.base", [6 x i8], %"class.llvm::AsmLexer", ptr, ptr, ptr, ptr, ptr, ptr, %"class.std::unique_ptr", i32, %struct.tm, %"class.llvm::BitVector", %"class.llvm::AsmCond", %"class.std::vector", %"class.llvm::StringMap", %"class.llvm::StringMap.15", %"class.llvm::SmallVector.16", %"class.llvm::StringMap.21", %"class.llvm::StringMap.22", %"class.std::vector.23", %"class.std::deque", i32, [4 x i8], %"struct.(anonymous namespace)::MasmParser::CppHashInfoTy", %"class.llvm::StringRef", %"class.llvm::SmallVector.31", i32, i8, i8, i8, i32, i16, %"class.llvm::StringMap.36", %"class.llvm::StringMap.37", %"class.llvm::StringMap.38" }
%"class.llvm::MCAsmParser.base" = type <{ ptr, ptr, %"class.llvm::SmallVector", i8, i8 }>
%"class.llvm::SmallVector" = type { %"class.llvm::SmallVectorImpl" }
%"class.llvm::SmallVectorImpl" = type { %"class.llvm::SmallVectorTemplateBase" }
%"class.llvm::SmallVectorTemplateBase" = type { %"class.llvm::SmallVectorTemplateCommon" }
%"class.llvm::SmallVectorTemplateCommon" = type { %"class.llvm::SmallVectorBase" }
%"class.llvm::AsmLexer" = type <{ %"class.llvm::MCAsmLexer", ptr, ptr, %"class.llvm::StringRef", i8, i8, i8, i8, [4 x i8] }>
%"class.llvm::MCAsmLexer" = type { ptr, %"class.llvm::SmallVector.0", %"class.llvm::SMLoc", %"class.std::__cxx11::basic_string", ptr, i8, i8, i8, i8, i8, i8, i8, i8, i8, i32, i8, i8, ptr }
%"class.llvm::SmallVector.0" = type { %"class.llvm::SmallVectorImpl.1", %"struct.llvm::SmallVectorStorage.4" }
%"class.llvm::SmallVectorImpl.1" = type { %"class.llvm::SmallVectorTemplateBase.2" }
%"class.llvm::SmallVectorTemplateBase.2" = type { %"class.llvm::SmallVectorTemplateCommon.3" }
%"class.llvm::SmallVectorTemplateCommon.3" = type { %"class.llvm::SmallVectorBase" }
%"struct.llvm::SmallVectorStorage.4" = type { [40 x i8] }
%"class.llvm::SMLoc" = type { ptr }
%"class.std::__cxx11::basic_string" = type { %"struct.std::__cxx11::basic_string<char>::_Alloc_hider", i64, %union.anon }
%"struct.std::__cxx11::basic_string<char>::_Alloc_hider" = type { ptr }
%union.anon = type { i64, [8 x i8] }
%"class.std::unique_ptr" = type { %"struct.std::__uniq_ptr_data" }
%"struct.std::__uniq_ptr_data" = type { %"class.std::__uniq_ptr_impl" }
%"class.std::__uniq_ptr_impl" = type { %"class.std::tuple" }
%"class.std::tuple" = type { %"struct.std::_Tuple_impl" }
%"struct.std::_Tuple_impl" = type { %"struct.std::_Head_base.6" }
%"struct.std::_Head_base.6" = type { ptr }
%"class.llvm::BitVector" = type <{ %"class.llvm::SmallVector.7", i32, [4 x i8] }>
%"class.llvm::SmallVector.7" = type { %"class.llvm::SmallVectorImpl.8", %"struct.llvm::SmallVectorStorage.11" }
%"class.llvm::SmallVectorImpl.8" = type { %"class.llvm::SmallVectorTemplateBase.9" }
%"class.llvm::SmallVectorTemplateBase.9" = type { %"class.llvm::SmallVectorTemplateCommon.10" }
%"class.llvm::SmallVectorTemplateCommon.10" = type { %"class.llvm::SmallVectorBase" }
%"struct.llvm::SmallVectorStorage.11" = type { [48 x i8] }
%"class.llvm::AsmCond" = type <{ i32, i8, i8, [2 x i8] }>
%"class.std::vector" = type { %"struct.std::_Vector_base" }
%"struct.std::_Vector_base" = type { %"struct.std::_Vector_base<llvm::AsmCond, std::allocator<llvm::AsmCond>>::_Vector_impl" }
%"struct.std::_Vector_base<llvm::AsmCond, std::allocator<llvm::AsmCond>>::_Vector_impl" = type { %"struct.std::_Vector_base<llvm::AsmCond, std::allocator<llvm::AsmCond>>::_Vector_impl_data" }
%"struct.std::_Vector_base<llvm::AsmCond, std::allocator<llvm::AsmCond>>::_Vector_impl_data" = type { ptr, ptr, ptr }
%"class.llvm::StringMap" = type { %"class.llvm::StringMapImpl" }
%"class.llvm::StringMapImpl" = type { ptr, i32, i32, i32, i32 }
%"class.llvm::StringMap.15" = type { %"class.llvm::StringMapImpl" }
%"class.llvm::SmallVector.16" = type { %"class.llvm::SmallVectorImpl.17", %"struct.llvm::SmallVectorStorage.20" }
%"class.llvm::SmallVectorImpl.17" = type { %"class.llvm::SmallVectorTemplateBase.18" }
%"class.llvm::SmallVectorTemplateBase.18" = type { %"class.llvm::SmallVectorTemplateCommon.19" }
%"class.llvm::SmallVectorTemplateCommon.19" = type { %"class.llvm::SmallVectorBase" }
%"struct.llvm::SmallVectorStorage.20" = type { [88 x i8] }
%"class.llvm::StringMap.21" = type { %"class.llvm::StringMapImpl" }
%"class.llvm::StringMap.22" = type { %"class.llvm::StringMapImpl" }
%"class.std::vector.23" = type { %"struct.std::_Vector_base.24" }
%"struct.std::_Vector_base.24" = type { %"struct.std::_Vector_base<(anonymous namespace)::MacroInstantiation *, std::allocator<(anonymous namespace)::MacroInstantiation *>>::_Vector_impl" }
%"struct.std::_Vector_base<(anonymous namespace)::MacroInstantiation *, std::allocator<(anonymous namespace)::MacroInstantiation *>>::_Vector_impl" = type { %"struct.std::_Vector_base<(anonymous namespace)::MacroInstantiation *, std::allocator<(anonymous namespace)::MacroInstantiation *>>::_Vector_impl_data" }
%"struct.std::_Vector_base<(anonymous namespace)::MacroInstantiation *, std::allocator<(anonymous namespace)::MacroInstantiation *>>::_Vector_impl_data" = type { ptr, ptr, ptr }
%"class.std::deque" = type { %"class.std::_Deque_base" }
%"class.std::_Deque_base" = type { %"struct.std::_Deque_base<llvm::MCAsmMacro, std::allocator<llvm::MCAsmMacro>>::_Deque_impl" }
%"struct.std::_Deque_base<llvm::MCAsmMacro, std::allocator<llvm::MCAsmMacro>>::_Deque_impl" = type { %"struct.std::_Deque_base<llvm::MCAsmMacro, std::allocator<llvm::MCAsmMacro>>::_Deque_impl_data" }
%"struct.std::_Deque_base<llvm::MCAsmMacro, std::allocator<llvm::MCAsmMacro>>::_Deque_impl_data" = type { ptr, i64, %"struct.std::_Deque_iterator", %"struct.std::_Deque_iterator" }
%"struct.std::_Deque_iterator" = type { ptr, ptr, ptr, ptr }
%"struct.(anonymous namespace)::MasmParser::CppHashInfoTy" = type <{ %"class.llvm::StringRef", i64, %"class.llvm::SMLoc", i32, [4 x i8] }>
%"class.llvm::SmallVector.31" = type { %"class.llvm::SmallVectorImpl.32", %"struct.llvm::SmallVectorStorage.35" }
%"class.llvm::SmallVectorImpl.32" = type { %"class.llvm::SmallVectorTemplateBase.33" }
%"class.llvm::SmallVectorTemplateBase.33" = type { %"class.llvm::SmallVectorTemplateCommon.34" }
%"class.llvm::SmallVectorTemplateCommon.34" = type { %"class.llvm::SmallVectorBase" }
%"struct.llvm::SmallVectorStorage.35" = type { [224 x i8] }
%"class.llvm::StringMap.36" = type { %"class.llvm::StringMapImpl" }
%"class.llvm::StringMap.37" = type { %"class.llvm::StringMapImpl" }
%"class.llvm::StringMap.38" = type { %"class.llvm::StringMapImpl" }
%"class.llvm::Twine" = type <{ %"union.llvm::Twine::Child", %"union.llvm::Twine::Child", i8, i8, [6 x i8] }>
%"union.llvm::Twine::Child" = type { %struct.anon }
%struct.anon = type { ptr, i64 }
%"struct.std::pair.617" = type <{ %"class.llvm::StringRef", i32, [4 x i8] }>

@.str.296 = private unnamed_addr constant [27 x i8] c" in '.cv_string' directive\00", align 1

; Function Attrs: mustprogress nounwind uwtable
define linkonce_odr hidden void @_ZN4llvm9StringRefC2ERKNSt7__cxx1112basic_stringIcSt11char_traitsIcESaIcEEE(ptr noundef nonnull align 8 dereferenceable(16) %0, ptr noundef nonnull align 8 dereferenceable(32) %1) unnamed_addr #0 comdat align 2 {
  %3 = alloca ptr, align 8
  %4 = alloca ptr, align 8
  store ptr %0, ptr %3, align 8
  store ptr %1, ptr %4, align 8
  %5 = load ptr, ptr %3, align 8
  %6 = getelementptr inbounds nuw %"class.llvm::StringRef", ptr %5, i32 0, i32 0
  %7 = load ptr, ptr %4, align 8
  %8 = call noundef ptr @_ZNKSt7__cxx1112basic_stringIcSt11char_traitsIcESaIcEE4dataEv(ptr noundef nonnull align 8 dereferenceable(32) %7) #15
  store ptr %8, ptr %6, align 8
  %9 = getelementptr inbounds nuw %"class.llvm::StringRef", ptr %5, i32 0, i32 1
  %10 = load ptr, ptr %4, align 8
  %11 = call noundef i64 @_ZNKSt7__cxx1112basic_stringIcSt11char_traitsIcESaIcEE6lengthEv(ptr noundef nonnull align 8 dereferenceable(32) %10) #15
  store i64 %11, ptr %9, align 8
  ret void
}

; Function Attrs: mustprogress nounwind uwtable
define internal noundef nonnull align 8 dereferenceable(289) ptr @_ZN12_GLOBAL__N_110MasmParser12getCVContextEv(ptr noundef nonnull align 8 dereferenceable(1144) %0) #0 align 2 {
  %2 = alloca ptr, align 8
  store ptr %0, ptr %2, align 8
  %3 = load ptr, ptr %2, align 8
  %4 = getelementptr inbounds nuw %"class.(anonymous namespace)::MasmParser", ptr %3, i32 0, i32 3
  %5 = load ptr, ptr %4, align 8
  %6 = call noundef nonnull align 8 dereferenceable(289) ptr @_ZN4llvm9MCContext12getCVContextEv(ptr noundef nonnull align 8 dereferenceable(2432) %5)
  ret ptr %6
}

; Function Attrs: mustprogress nounwind uwtable
define linkonce_odr hidden void @_ZN4llvm5TwineC2EPKc(ptr noundef nonnull align 8 dereferenceable(34) %0, ptr noundef %1) unnamed_addr #0 comdat align 2 {
  %3 = alloca ptr, align 8
  %4 = alloca ptr, align 8
  store ptr %0, ptr %3, align 8
  store ptr %1, ptr %4, align 8
  %5 = load ptr, ptr %3, align 8
  %6 = getelementptr inbounds nuw %"class.llvm::Twine", ptr %5, i32 0, i32 2
  store i8 1, ptr %6, align 8
  %7 = getelementptr inbounds nuw %"class.llvm::Twine", ptr %5, i32 0, i32 3
  store i8 1, ptr %7, align 1
  %8 = load ptr, ptr %4, align 8
  %9 = getelementptr inbounds i8, ptr %8, i64 0
  %10 = load i8, ptr %9, align 1
  %11 = sext i8 %10 to i32
  %12 = icmp ne i32 %11, 0
  br i1 %12, label %13, label %17

13:                                               ; preds = %2
  %14 = load ptr, ptr %4, align 8
  %15 = getelementptr inbounds nuw %"class.llvm::Twine", ptr %5, i32 0, i32 0
  store ptr %14, ptr %15, align 8
  %16 = getelementptr inbounds nuw %"class.llvm::Twine", ptr %5, i32 0, i32 2
  store i8 3, ptr %16, align 8
  br label %19

17:                                               ; preds = %2
  %18 = getelementptr inbounds nuw %"class.llvm::Twine", ptr %5, i32 0, i32 2
  store i8 1, ptr %18, align 8
  br label %19

19:                                               ; preds = %17, %13
  ret void
}

; Function Attrs: mustprogress nounwind uwtable
define internal noundef zeroext i1 @_ZN12_GLOBAL__N_110MasmParser22parseDirectiveCVStringEv(ptr noundef nonnull align 8 dereferenceable(1144) %0) #0 align 2 {
  %2 = alloca i1, align 1
  %3 = alloca ptr, align 8
  %4 = alloca %"class.std::__cxx11::basic_string", align 8
  %5 = alloca %"class.llvm::Twine", align 8
  %6 = alloca i32, align 4
  %7 = alloca %"struct.std::pair.617", align 8
  %8 = alloca %"class.llvm::StringRef", align 8
  store ptr %0, ptr %3, align 8
  %9 = load ptr, ptr %3, align 8
  call void @_ZNSt7__cxx1112basic_stringIcSt11char_traitsIcESaIcEEC1Ev(ptr noundef nonnull align 8 dereferenceable(32) %4) #15
  %10 = load ptr, ptr %9, align 8
  %11 = getelementptr inbounds ptr, ptr %10, i64 33
  %12 = load ptr, ptr %11, align 8
  %13 = call noundef zeroext i1 %12(ptr noundef nonnull align 8 dereferenceable(1144) %9)
  br i1 %13, label %19, label %14

14:                                               ; preds = %1
  %15 = load ptr, ptr %9, align 8
  %16 = getelementptr inbounds ptr, ptr %15, i64 26
  %17 = load ptr, ptr %16, align 8
  %18 = call noundef zeroext i1 %17(ptr noundef nonnull align 8 dereferenceable(1144) %9, ptr noundef nonnull align 8 dereferenceable(32) %4)
  br i1 %18, label %19, label %21

19:                                               ; preds = %14, %1
  call void @_ZN4llvm5TwineC2EPKc(ptr noundef nonnull align 8 dereferenceable(34) %5, ptr noundef @.str.296)
  %20 = call noundef zeroext i1 @_ZN4llvm11MCAsmParser14addErrorSuffixERKNS_5TwineE(ptr noundef nonnull align 8 dereferenceable(34) %9, ptr noundef nonnull align 8 dereferenceable(34) %5)
  store i1 %20, ptr %2, align 1
  store i32 1, ptr %6, align 4
  br label %37

21:                                               ; preds = %14
  %22 = call noundef nonnull align 8 dereferenceable(289) ptr @_ZN12_GLOBAL__N_110MasmParser12getCVContextEv(ptr noundef nonnull align 8 dereferenceable(1144) %9)
  call void @_ZN4llvm9StringRefC2ERKNSt7__cxx1112basic_stringIcSt11char_traitsIcESaIcEEE(ptr noundef nonnull align 8 dereferenceable(16) %8, ptr noundef nonnull align 8 dereferenceable(32) %4)
  %23 = getelementptr inbounds nuw { ptr, i64 }, ptr %8, i32 0, i32 0
  %24 = load ptr, ptr %23, align 8
  %25 = getelementptr inbounds nuw { ptr, i64 }, ptr %8, i32 0, i32 1
  %26 = load i64, ptr %25, align 8
  call void @_ZN4llvm15CodeViewContext16addToStringTableENS_9StringRefE(ptr dead_on_unwind writable sret(%"struct.std::pair.617") align 8 %7, ptr noundef nonnull align 8 dereferenceable(289) %22, ptr %24, i64 %26)
  %27 = load ptr, ptr %9, align 8
  %28 = getelementptr inbounds ptr, ptr %27, i64 7
  %29 = load ptr, ptr %28, align 8
  %30 = call noundef nonnull align 8 dereferenceable(288) ptr %29(ptr noundef nonnull align 8 dereferenceable(1144) %9)
  %31 = getelementptr inbounds nuw %"struct.std::pair.617", ptr %7, i32 0, i32 1
  %32 = load i32, ptr %31, align 8
  %33 = zext i32 %32 to i64
  %34 = load ptr, ptr %30, align 8
  %35 = getelementptr inbounds ptr, ptr %34, i64 65
  %36 = load ptr, ptr %35, align 8
  call void %36(ptr noundef nonnull align 8 dereferenceable(288) %30, i64 noundef %33, i32 noundef 4)
  store i1 false, ptr %2, align 1
  store i32 1, ptr %6, align 4
  br label %37

37:                                               ; preds = %21, %19
  call void @_ZNSt7__cxx1112basic_stringIcSt11char_traitsIcESaIcEED1Ev(ptr noundef nonnull align 8 dereferenceable(32) %4) #15
  %38 = load i1, ptr %2, align 1
  ret i1 %38
}