; Function Attrs: mustprogress nounwind uwtable
define internal fastcc noundef zeroext i1 @_ZN12_GLOBAL__N_110MasmParser22parseDirectiveCVStringEv(ptr noundef nonnull align 8 dereferenceable(1144) %0) unnamed_addr #0 align 2 {
  %2 = alloca %"class.std::__cxx11::basic_string", align 8
  %3 = alloca %"class.llvm::Twine", align 8
  %4 = alloca %"struct.std::pair.617", align 8
  call void @_ZNSt7__cxx1112basic_stringIcSt11char_traitsIcESaIcEEC1Ev(ptr noundef nonnull align 8 dereferenceable(32) %2) #24
  %5 = load ptr, ptr %0, align 8
  %6 = getelementptr inbounds nuw i8, ptr %5, i64 264
  %7 = load ptr, ptr %6, align 8
  %8 = call noundef zeroext i1 %7(ptr noundef nonnull align 8 dereferenceable(1144) %0) #24
  br i1 %8, label %14, label %9

9:                                                ; preds = %1
  %10 = load ptr, ptr %0, align 8
  %11 = getelementptr inbounds nuw i8, ptr %10, i64 208
  %12 = load ptr, ptr %11, align 8
  %13 = call noundef zeroext i1 %12(ptr noundef nonnull align 8 dereferenceable(1144) %0, ptr noundef nonnull align 8 dereferenceable(32) %2) #24
  br i1 %13, label %14, label %18

14:                                               ; preds = %9, %1
  %15 = getelementptr inbounds nuw i8, ptr %3, i64 32
  %16 = getelementptr inbounds nuw i8, ptr %3, i64 33
  store i8 1, ptr %16, align 1
  store ptr @.str.296, ptr %3, align 8
  store i8 3, ptr %15, align 8
  %17 = call noundef zeroext i1 @_ZN4llvm11MCAsmParser14addErrorSuffixERKNS_5TwineE(ptr noundef nonnull align 8 dereferenceable(34) %0, ptr noundef nonnull align 8 dereferenceable(34) %3) #24
  br label %33

18:                                               ; preds = %9
  %19 = getelementptr inbounds nuw i8, ptr %0, i64 224
  %.val = load ptr, ptr %19, align 8
  %20 = call noundef nonnull align 8 dereferenceable(289) ptr @_ZN4llvm9MCContext12getCVContextEv(ptr noundef nonnull align 8 dereferenceable(2432) %.val) #24
  %21 = call noundef ptr @_ZNKSt7__cxx1112basic_stringIcSt11char_traitsIcESaIcEE4dataEv(ptr noundef nonnull align 8 dereferenceable(32) %2) #24
  %22 = call noundef i64 @_ZNKSt7__cxx1112basic_stringIcSt11char_traitsIcESaIcEE6lengthEv(ptr noundef nonnull align 8 dereferenceable(32) %2) #24
  call void @_ZN4llvm15CodeViewContext16addToStringTableENS_9StringRefE(ptr dead_on_unwind nonnull writable sret(%"struct.std::pair.617") align 8 %4, ptr noundef nonnull align 8 dereferenceable(289) %20, ptr %21, i64 %22) #24
  %23 = load ptr, ptr %0, align 8
  %24 = getelementptr inbounds nuw i8, ptr %23, i64 56
  %25 = load ptr, ptr %24, align 8
  %26 = call noundef nonnull align 8 dereferenceable(288) ptr %25(ptr noundef nonnull align 8 dereferenceable(1144) %0) #24
  %27 = getelementptr inbounds nuw i8, ptr %4, i64 16
  %28 = load i32, ptr %27, align 8
  %29 = zext i32 %28 to i64
  %30 = load ptr, ptr %26, align 8
  %31 = getelementptr inbounds nuw i8, ptr %30, i64 520
  %32 = load ptr, ptr %31, align 8
  call void %32(ptr noundef nonnull align 8 dereferenceable(288) %26, i64 noundef %29, i32 noundef 4) #24
  br label %33

33:                                               ; preds = %18, %14
  %.0 = phi i1 [ %17, %14 ], [ false, %18 ]
  call void @_ZNSt7__cxx1112basic_stringIcSt11char_traitsIcESaIcEED1Ev(ptr noundef nonnull align 8 dereferenceable(32) %2) #24
  ret i1 %.0
}